target datalayout = "e-m:e-p270:32:32-p271:32:32-p272:64:64-i64:64-i128:128-f80:128-n8:16:32:64-S128"
target triple = "x86_64-pc-linux-gnu"

@.str = private unnamed_addr constant [30 x i8] c"../openssl/crypto/ct/ct_b64.c\00", align 1
@__func__.ct_base64_decode = private unnamed_addr constant [17 x i8] c"ct_base64_decode\00", align 1

; Function Attrs: nounwind uwtable
define internal i32 @ct_base64_decode(ptr noundef %0, ptr noundef %1) #0 {
  %3 = alloca i32, align 4
  %4 = alloca ptr, align 8
  %5 = alloca ptr, align 8
  %6 = alloca i64, align 8
  %7 = alloca i32, align 4
  %8 = alloca i32, align 4
  %9 = alloca ptr, align 8
  %10 = alloca i32, align 4
  store ptr %0, ptr %4, align 8, !tbaa !6
  store ptr %1, ptr %5, align 8, !tbaa !15
  call void @llvm.lifetime.start.p0(i64 8, ptr %6) #4
  %11 = load ptr, ptr %4, align 8, !tbaa !6
  %12 = call i64 @strlen(ptr noundef %11) #5
  store i64 %12, ptr %6, align 8, !tbaa !11
  call void @llvm.lifetime.start.p0(i64 4, ptr %7) #4
  call void @llvm.lifetime.start.p0(i64 4, ptr %8) #4
  call void @llvm.lifetime.start.p0(i64 8, ptr %9) #4
  store ptr null, ptr %9, align 8, !tbaa !6
  %13 = load i64, ptr %6, align 8, !tbaa !11
  %14 = icmp eq i64 %13, 0
  br i1 %14, label %15, label %17

15:                                               ; preds = %2
  %16 = load ptr, ptr %5, align 8, !tbaa !15
  store ptr null, ptr %16, align 8, !tbaa !6
  store i32 0, ptr %3, align 4
  store i32 1, ptr %10, align 4
  br label %60

17:                                               ; preds = %2
  %18 = load i64, ptr %6, align 8, !tbaa !11
  %19 = udiv i64 %18, 4
  %20 = mul i64 %19, 3
  %21 = trunc i64 %20 to i32
  store i32 %21, ptr %7, align 4, !tbaa !9
  %22 = load i32, ptr %7, align 4, !tbaa !9
  %23 = sext i32 %22 to i64
  %24 = call noalias ptr @CRYPTO_malloc(i64 noundef %23, ptr noundef @.str, i32 noundef 36)
  store ptr %24, ptr %9, align 8, !tbaa !6
  %25 = load ptr, ptr %9, align 8, !tbaa !6
  %26 = icmp eq ptr %25, null
  br i1 %26, label %27, label %28

27:                                               ; preds = %17
  br label %58

28:                                               ; preds = %17
  %29 = load ptr, ptr %9, align 8, !tbaa !6
  %30 = load ptr, ptr %4, align 8, !tbaa !6
  %31 = load i64, ptr %6, align 8, !tbaa !11
  %32 = trunc i64 %31 to i32
  %33 = call i32 @EVP_DecodeBlock(ptr noundef %29, ptr noundef %30, i32 noundef %32)
  store i32 %33, ptr %7, align 4, !tbaa !9
  %34 = load i32, ptr %7, align 4, !tbaa !9
  %35 = icmp slt i32 %34, 0
  br i1 %35, label %36, label %37

36:                                               ; preds = %28
  call void @ERR_new()
  call void @ERR_set_debug(ptr noundef @.str, i32 noundef 42, ptr noundef @__func__.ct_base64_decode)
  call void (i32, i32, ptr, ...) @ERR_set_error(i32 noundef 50, i32 noundef 108, ptr noundef null)
  br label %58

37:                                               ; preds = %28
  store i32 0, ptr %8, align 4, !tbaa !9
  br label %38

38:                                               ; preds = %53, %37
  %39 = load ptr, ptr %4, align 8, !tbaa !6
  %40 = load i64, ptr %6, align 8, !tbaa !11
  %41 = add i64 %40, -1
  store i64 %41, ptr %6, align 8, !tbaa !11
  %42 = getelementptr inbounds nuw i8, ptr %39, i64 %41
  %43 = load i8, ptr %42, align 1, !tbaa !3
  %44 = sext i8 %43 to i32
  %45 = icmp eq i32 %44, 61
  br i1 %45, label %46, label %54

46:                                               ; preds = %38
  %47 = load i32, ptr %7, align 4, !tbaa !9
  %48 = add nsw i32 %47, -1
  store i32 %48, ptr %7, align 4, !tbaa !9
  %49 = load i32, ptr %8, align 4, !tbaa !9
  %50 = add nsw i32 %49, 1
  store i32 %50, ptr %8, align 4, !tbaa !9
  %51 = icmp sgt i32 %50, 2
  br i1 %51, label %52, label %53

52:                                               ; preds = %46
  br label %58

53:                                               ; preds = %46
  br label %38, !llvm.loop !17

54:                                               ; preds = %38
  %55 = load ptr, ptr %9, align 8, !tbaa !6
  %56 = load ptr, ptr %5, align 8, !tbaa !15
  store ptr %55, ptr %56, align 8, !tbaa !6
  %57 = load i32, ptr %7, align 4, !tbaa !9
  store i32 %57, ptr %3, align 4
  store i32 1, ptr %10, align 4
  br label %60

58:                                               ; preds = %52, %36, %27
  %59 = load ptr, ptr %9, align 8, !tbaa !6
  call void @CRYPTO_free(ptr noundef %59, ptr noundef @.str, i32 noundef 57)
  store i32 -1, ptr %3, align 4
  store i32 1, ptr %10, align 4
  br label %60

60:                                               ; preds = %58, %54, %15
  call void @llvm.lifetime.end.p0(i64 8, ptr %9) #4
  call void @llvm.lifetime.end.p0(i64 4, ptr %8) #4
  call void @llvm.lifetime.end.p0(i64 4, ptr %7) #4
  call void @llvm.lifetime.end.p0(i64 8, ptr %6) #4
  %61 = load i32, ptr %3, align 4
  ret i32 %61
}