; Function Attrs: nounwind uwtable
define internal fastcc i32 @ct_base64_decode(ptr noundef %0, ptr noundef nonnull writeonly captures(none) %1) unnamed_addr #0 {
  %3 = tail call i64 @strlen(ptr noundef nonnull dereferenceable(1) %0) #5
  %4 = icmp eq i64 %3, 0
  br i1 %4, label %5, label %6

5:                                                ; preds = %2
  store ptr null, ptr %1, align 8, !tbaa !3
  br label %24

6:                                                ; preds = %2
  %7 = lshr i64 %3, 2
  %sext = mul i64 %7, 12884901888
  %8 = ashr exact i64 %sext, 32
  %9 = tail call noalias ptr @CRYPTO_malloc(i64 noundef %8, ptr noundef nonnull @.str, i32 noundef 36) #4
  %10 = icmp eq ptr %9, null
  br i1 %10, label %.loopexit, label %11

11:                                               ; preds = %6
  %12 = trunc i64 %3 to i32
  %13 = tail call i32 @EVP_DecodeBlock(ptr noundef nonnull %9, ptr noundef nonnull %0, i32 noundef %12) #4
  %14 = icmp slt i32 %13, 0
  br i1 %14, label %15, label %.preheader

15:                                               ; preds = %11
  tail call void @ERR_new() #4
  tail call void @ERR_set_debug(ptr noundef nonnull @.str, i32 noundef 42, ptr noundef nonnull @__func__.ct_base64_decode) #4
  tail call void (i32, i32, ptr, ...) @ERR_set_error(i32 noundef 50, i32 noundef 108, ptr noundef null) #4
  br label %.loopexit

.preheader:                                       ; preds = %11, %20
  %.019 = phi i64 [ %16, %20 ], [ %3, %11 ]
  %.018 = phi i32 [ %21, %20 ], [ %13, %11 ]
  %.0 = phi i32 [ %22, %20 ], [ 0, %11 ]
  %16 = add i64 %.019, -1
  %17 = getelementptr inbounds nuw i8, ptr %0, i64 %16
  %18 = load i8, ptr %17, align 1, !tbaa !8
  %19 = icmp eq i8 %18, 61
  br i1 %19, label %20, label %23

20:                                               ; preds = %.preheader
  %21 = add nsw i32 %.018, -1
  %22 = add nuw nsw i32 %.0, 1
  %exitcond = icmp eq i32 %22, 3
  br i1 %exitcond, label %.loopexit, label %.preheader, !llvm.loop !9

23:                                               ; preds = %.preheader
  store ptr %9, ptr %1, align 8, !tbaa !3
  br label %24

.loopexit:                                        ; preds = %20, %6, %15
  tail call void @CRYPTO_free(ptr noundef %9, ptr noundef nonnull @.str, i32 noundef 57) #4
  br label %24

24:                                               ; preds = %.loopexit, %23, %5
  %.020 = phi i32 [ 0, %5 ], [ -1, %.loopexit ], [ %.018, %23 ]
  ret i32 %.020
}